target datalayout = "e-m:e-p270:32:32-p271:32:32-p272:64:64-i64:64-i128:128-f80:128-n8:16:32:64-S128"
target triple = "x86_64-pc-linux-gnu"

%struct.client_conn_tag = type { i32, ptr, i32, i32, ptr, ptr, ptr, i64, i8, ptr, i32, i64, ptr, i32 }

@.str.7 = private unnamed_addr constant [16 x i8] c"%u: %s: %s %s%c\00", align 1
@.str.8 = private unnamed_addr constant [12 x i8] c"%u: %s %s%c\00", align 1
@.str.9 = private unnamed_addr constant [12 x i8] c"%s: %s %s%c\00", align 1
@.str.10 = private unnamed_addr constant [8 x i8] c"%s %s%c\00", align 1
@.str.14 = private unnamed_addr constant [8 x i8] c". ERROR\00", align 1

; Function Attrs: nounwind uwtable
define dso_local i32 @conn_reply(ptr noundef %0, ptr noundef %1, ptr noundef %2, ptr noundef %3) #0 {
  %5 = alloca i32, align 4
  %6 = alloca ptr, align 8
  %7 = alloca ptr, align 8
  %8 = alloca ptr, align 8
  %9 = alloca ptr, align 8
  store ptr %0, ptr %6, align 8, !tbaa !22
  store ptr %1, ptr %7, align 8, !tbaa !4
  store ptr %2, ptr %8, align 8, !tbaa !4
  store ptr %3, ptr %9, align 8, !tbaa !4
  %10 = load ptr, ptr %6, align 8, !tbaa !22
  %11 = getelementptr inbounds nuw %struct.client_conn_tag, ptr %10, i32 0, i32 10
  %12 = load i32, ptr %11, align 8, !tbaa !24
  %13 = icmp ne i32 %12, 0
  br i1 %13, label %14, label %46

14:                                               ; preds = %4
  %15 = load ptr, ptr %7, align 8, !tbaa !4
  %16 = icmp ne ptr %15, null
  br i1 %16, label %17, label %32

17:                                               ; preds = %14
  %18 = load ptr, ptr %6, align 8, !tbaa !22
  %19 = getelementptr inbounds nuw %struct.client_conn_tag, ptr %18, i32 0, i32 3
  %20 = load i32, ptr %19, align 4, !tbaa !31
  %21 = load ptr, ptr %6, align 8, !tbaa !22
  %22 = getelementptr inbounds nuw %struct.client_conn_tag, ptr %21, i32 0, i32 10
  %23 = load i32, ptr %22, align 8, !tbaa !24
  %24 = load ptr, ptr %7, align 8, !tbaa !4
  %25 = load ptr, ptr %8, align 8, !tbaa !4
  %26 = load ptr, ptr %9, align 8, !tbaa !4
  %27 = load ptr, ptr %6, align 8, !tbaa !22
  %28 = getelementptr inbounds nuw %struct.client_conn_tag, ptr %27, i32 0, i32 8
  %29 = load i8, ptr %28, align 8, !tbaa !32
  %30 = sext i8 %29 to i32
  %31 = call i32 (i32, ptr, ...) @mdprintf(i32 noundef %20, ptr noundef @.str.7, i32 noundef %23, ptr noundef %24, ptr noundef %25, ptr noundef %26, i32 noundef %30)
  store i32 %31, ptr %5, align 4
  br label %72

32:                                               ; preds = %14
  %33 = load ptr, ptr %6, align 8, !tbaa !22
  %34 = getelementptr inbounds nuw %struct.client_conn_tag, ptr %33, i32 0, i32 3
  %35 = load i32, ptr %34, align 4, !tbaa !31
  %36 = load ptr, ptr %6, align 8, !tbaa !22
  %37 = getelementptr inbounds nuw %struct.client_conn_tag, ptr %36, i32 0, i32 10
  %38 = load i32, ptr %37, align 8, !tbaa !24
  %39 = load ptr, ptr %8, align 8, !tbaa !4
  %40 = load ptr, ptr %9, align 8, !tbaa !4
  %41 = load ptr, ptr %6, align 8, !tbaa !22
  %42 = getelementptr inbounds nuw %struct.client_conn_tag, ptr %41, i32 0, i32 8
  %43 = load i8, ptr %42, align 8, !tbaa !32
  %44 = sext i8 %43 to i32
  %45 = call i32 (i32, ptr, ...) @mdprintf(i32 noundef %35, ptr noundef @.str.8, i32 noundef %38, ptr noundef %39, ptr noundef %40, i32 noundef %44)
  store i32 %45, ptr %5, align 4
  br label %72

46:                                               ; preds = %4
  %47 = load ptr, ptr %7, align 8, !tbaa !4
  %48 = icmp ne ptr %47, null
  br i1 %48, label %49, label %61

49:                                               ; preds = %46
  %50 = load ptr, ptr %6, align 8, !tbaa !22
  %51 = getelementptr inbounds nuw %struct.client_conn_tag, ptr %50, i32 0, i32 3
  %52 = load i32, ptr %51, align 4, !tbaa !31
  %53 = load ptr, ptr %7, align 8, !tbaa !4
  %54 = load ptr, ptr %8, align 8, !tbaa !4
  %55 = load ptr, ptr %9, align 8, !tbaa !4
  %56 = load ptr, ptr %6, align 8, !tbaa !22
  %57 = getelementptr inbounds nuw %struct.client_conn_tag, ptr %56, i32 0, i32 8
  %58 = load i8, ptr %57, align 8, !tbaa !32
  %59 = sext i8 %58 to i32
  %60 = call i32 (i32, ptr, ...) @mdprintf(i32 noundef %52, ptr noundef @.str.9, ptr noundef %53, ptr noundef %54, ptr noundef %55, i32 noundef %59)
  store i32 %60, ptr %5, align 4
  br label %72

61:                                               ; preds = %46
  %62 = load ptr, ptr %6, align 8, !tbaa !22
  %63 = getelementptr inbounds nuw %struct.client_conn_tag, ptr %62, i32 0, i32 3
  %64 = load i32, ptr %63, align 4, !tbaa !31
  %65 = load ptr, ptr %8, align 8, !tbaa !4
  %66 = load ptr, ptr %9, align 8, !tbaa !4
  %67 = load ptr, ptr %6, align 8, !tbaa !22
  %68 = getelementptr inbounds nuw %struct.client_conn_tag, ptr %67, i32 0, i32 8
  %69 = load i8, ptr %68, align 8, !tbaa !32
  %70 = sext i8 %69 to i32
  %71 = call i32 (i32, ptr, ...) @mdprintf(i32 noundef %64, ptr noundef @.str.10, ptr noundef %65, ptr noundef %66, i32 noundef %70)
  store i32 %71, ptr %5, align 4
  br label %72

72:                                               ; preds = %61, %49, %32, %17
  %73 = load i32, ptr %5, align 4
  ret i32 %73
}

; Function Attrs: nounwind uwtable
define dso_local i32 @conn_reply_errno(ptr noundef %0, ptr noundef %1, ptr noundef %2) #0 {
  %4 = alloca ptr, align 8
  %5 = alloca ptr, align 8
  %6 = alloca ptr, align 8
  %7 = alloca [1032 x i8], align 16
  store ptr %0, ptr %4, align 8, !tbaa !22
  store ptr %1, ptr %5, align 8, !tbaa !4
  store ptr %2, ptr %6, align 8, !tbaa !4
  call void @llvm.lifetime.start.p0(i64 1032, ptr %7) #9
  %8 = call ptr @__errno_location() #11
  %9 = load i32, ptr %8, align 4, !tbaa !11
  %10 = getelementptr inbounds [1032 x i8], ptr %7, i64 0, i64 0
  %11 = call ptr @cli_strerror(i32 noundef %9, ptr noundef %10, i64 noundef 1023)
  %12 = getelementptr inbounds [1032 x i8], ptr %7, i64 0, i64 0
  %13 = call ptr @strcat(ptr noundef %12, ptr noundef @.str.14) #9
  %14 = load ptr, ptr %4, align 8, !tbaa !22
  %15 = load ptr, ptr %5, align 8, !tbaa !4
  %16 = load ptr, ptr %6, align 8, !tbaa !4
  %17 = getelementptr inbounds [1032 x i8], ptr %7, i64 0, i64 0
  %18 = call i32 @conn_reply(ptr noundef %14, ptr noundef %15, ptr noundef %16, ptr noundef %17)
  call void @llvm.lifetime.end.p0(i64 1032, ptr %7) #9
  ret i32 %18
}