; Function Attrs: nounwind uwtable
define dso_local i32 @conn_reply_errno(ptr noundef readonly captures(none) %0, ptr noundef %1, ptr noundef %2) local_unnamed_addr #0 {
  %4 = alloca [1032 x i8], align 16
  call void @llvm.lifetime.start.p0(i64 1032, ptr nonnull %4) #14
  %5 = tail call ptr @__errno_location() #15
  %6 = load i32, ptr %5, align 4, !tbaa !27
  %7 = call ptr @cli_strerror(i32 noundef %6, ptr noundef nonnull %4, i64 noundef 1023) #14
  %strlen = call i64 @strlen(ptr nonnull dereferenceable(1) %4)
  %endptr = getelementptr inbounds i8, ptr %4, i64 %strlen
  store i64 23168163076448302, ptr %endptr, align 1
  %8 = getelementptr inbounds nuw i8, ptr %0, i64 72
  %9 = load i32, ptr %8, align 8, !tbaa !18
  %.not.i = icmp eq i32 %9, 0
  %.not25.i = icmp eq ptr %1, null
  %10 = getelementptr inbounds nuw i8, ptr %0, i64 20
  %11 = load i32, ptr %10, align 4, !tbaa !25
  %12 = getelementptr inbounds nuw i8, ptr %0, i64 56
  %13 = load i8, ptr %12, align 8, !tbaa !26
  %14 = sext i8 %13 to i32
  br i1 %.not.i, label %20, label %15

15:                                               ; preds = %3
  br i1 %.not25.i, label %18, label %16

16:                                               ; preds = %15
  %17 = call i32 (i32, ptr, ...) @mdprintf(i32 noundef %11, ptr noundef nonnull @.str.7, i32 noundef %9, ptr noundef nonnull %1, ptr noundef %2, ptr noundef nonnull %4, i32 noundef %14) #14
  br label %conn_reply.exit

18:                                               ; preds = %15
  %19 = call i32 (i32, ptr, ...) @mdprintf(i32 noundef %11, ptr noundef nonnull @.str.8, i32 noundef %9, ptr noundef %2, ptr noundef nonnull %4, i32 noundef %14) #14
  br label %conn_reply.exit

20:                                               ; preds = %3
  br i1 %.not25.i, label %23, label %21

21:                                               ; preds = %20
  %22 = call i32 (i32, ptr, ...) @mdprintf(i32 noundef %11, ptr noundef nonnull @.str.9, ptr noundef nonnull %1, ptr noundef %2, ptr noundef nonnull %4, i32 noundef %14) #14
  br label %conn_reply.exit

23:                                               ; preds = %20
  %24 = call i32 (i32, ptr, ...) @mdprintf(i32 noundef %11, ptr noundef nonnull @.str.10, ptr noundef %2, ptr noundef nonnull %4, i32 noundef %14) #14
  br label %conn_reply.exit

conn_reply.exit:                                  ; preds = %16, %18, %21, %23
  %.0.i = phi i32 [ %17, %16 ], [ %19, %18 ], [ %22, %21 ], [ %24, %23 ]
  call void @llvm.lifetime.end.p0(i64 1032, ptr nonnull %4) #14
  ret i32 %.0.i
}